target datalayout = "e-m:e-p270:32:32-p271:32:32-p272:64:64-i64:64-i128:128-f80:128-n8:16:32:64-S128"
target triple = "x86_64-pc-linux-gnu"

%"class.OpenColorIO_v2_5dev::ArrayT" = type { %"class.OpenColorIO_v2_5dev::ArrayBase", i64, i64, %"class.std::vector.11" }
%"class.OpenColorIO_v2_5dev::ArrayBase" = type { ptr }
%"class.std::vector.11" = type { %"struct.std::_Vector_base.12" }
%"struct.std::_Vector_base.12" = type { %"struct.std::_Vector_base<float, std::allocator<float>>::_Vector_impl" }
%"struct.std::_Vector_base<float, std::allocator<float>>::_Vector_impl" = type { %"struct.std::_Vector_base<float, std::allocator<float>>::_Vector_impl_data" }
%"struct.std::_Vector_base<float, std::allocator<float>>::_Vector_impl_data" = type { ptr, ptr, ptr }

; Function Attrs: mustprogress nounwind uwtable
define linkonce_odr hidden noundef nonnull align 4 dereferenceable(4) ptr @_ZNSt6vectorIfSaIfEEixEm(ptr noundef nonnull align 8 dereferenceable(24) %0, i64 noundef %1) #5 comdat align 2 {
  %3 = alloca ptr, align 8
  %4 = alloca i64, align 8
  store ptr %0, ptr %3, align 8, !tbaa !60
  store i64 %1, ptr %4, align 8, !tbaa !8
  %5 = load ptr, ptr %3, align 8
  %6 = getelementptr inbounds nuw %"struct.std::_Vector_base.12", ptr %5, i32 0, i32 0
  %7 = getelementptr inbounds nuw %"struct.std::_Vector_base<float, std::allocator<float>>::_Vector_impl_data", ptr %6, i32 0, i32 0
  %8 = load ptr, ptr %7, align 8, !tbaa !75
  %9 = load i64, ptr %4, align 8, !tbaa !8
  %10 = getelementptr inbounds nuw float, ptr %8, i64 %9
  ret ptr %10
}

; Function Attrs: inlinehint mustprogress nounwind uwtable
define linkonce_odr hidden noundef nonnull align 8 dereferenceable(24) ptr @_ZN19OpenColorIO_v2_5dev6ArrayTIfE9getValuesEv(ptr noundef nonnull align 8 dereferenceable(48) %0) #8 comdat align 2 {
  %2 = alloca ptr, align 8
  store ptr %0, ptr %2, align 8, !tbaa !73
  %3 = load ptr, ptr %2, align 8
  %4 = getelementptr inbounds nuw %"class.OpenColorIO_v2_5dev::ArrayT", ptr %3, i32 0, i32 3
  ret ptr %4
}

; Function Attrs: mustprogress nounwind uwtable
define linkonce_odr hidden noundef i64 @_ZNK19OpenColorIO_v2_5dev6ArrayTIfE21getMaxColorComponentsEv(ptr noundef nonnull align 8 dereferenceable(48) %0) #5 comdat align 2 {
  %2 = alloca ptr, align 8
  store ptr %0, ptr %2, align 8, !tbaa !73
  ret i64 3
}

; Function Attrs: mustprogress uwtable
define hidden void @_ZN19OpenColorIO_v2_5dev11Lut3DOpData10Lut3DArray4fillEv(ptr noundef nonnull align 8 dereferenceable(48) %0) #4 align 2 {
  %2 = alloca ptr, align 8
  %3 = alloca i64, align 8
  %4 = alloca i64, align 8
  %5 = alloca ptr, align 8
  %6 = alloca float, align 4
  %7 = alloca i64, align 8
  %8 = alloca i64, align 8
  store ptr %0, ptr %2, align 8, !tbaa !78
  %9 = load ptr, ptr %2, align 8
  call void @llvm.lifetime.start.p0(i64 8, ptr %3) #3
  %10 = load ptr, ptr %9, align 8, !tbaa !57
  %11 = getelementptr inbounds ptr, ptr %10, i64 4
  %12 = load ptr, ptr %11, align 8
  %13 = call noundef i64 %12(ptr noundef nonnull align 8 dereferenceable(48) %9)
  store i64 %13, ptr %3, align 8, !tbaa !8
  call void @llvm.lifetime.start.p0(i64 8, ptr %4) #3
  %14 = call noundef i64 @_ZNK19OpenColorIO_v2_5dev6ArrayTIfE21getMaxColorComponentsEv(ptr noundef nonnull align 8 dereferenceable(48) %9)
  store i64 %14, ptr %4, align 8, !tbaa !8
  call void @llvm.lifetime.start.p0(i64 8, ptr %5) #3
  %15 = call noundef nonnull align 8 dereferenceable(24) ptr @_ZN19OpenColorIO_v2_5dev6ArrayTIfE9getValuesEv(ptr noundef nonnull align 8 dereferenceable(48) %9)
  store ptr %15, ptr %5, align 8, !tbaa !60
  call void @llvm.lifetime.start.p0(i64 4, ptr %6) #3
  %16 = load i64, ptr %3, align 8, !tbaa !8
  %17 = sitofp i64 %16 to float
  %18 = fsub float %17, 1.000000e+00
  %19 = fdiv float 1.000000e+00, %18
  store float %19, ptr %6, align 4, !tbaa !82
  call void @llvm.lifetime.start.p0(i64 8, ptr %7) #3
  %20 = load i64, ptr %3, align 8, !tbaa !8
  %21 = load i64, ptr %3, align 8, !tbaa !8
  %22 = mul nsw i64 %20, %21
  %23 = load i64, ptr %3, align 8, !tbaa !8
  %24 = mul nsw i64 %22, %23
  store i64 %24, ptr %7, align 8, !tbaa !8
  call void @llvm.lifetime.start.p0(i64 8, ptr %8) #3
  store i64 0, ptr %8, align 8, !tbaa !8
  br label %25

25:                                               ; preds = %73, %1
  %26 = load i64, ptr %8, align 8, !tbaa !8
  %27 = load i64, ptr %7, align 8, !tbaa !8
  %28 = icmp slt i64 %26, %27
  br i1 %28, label %30, label %29

29:                                               ; preds = %25
  call void @llvm.lifetime.end.p0(i64 8, ptr %8) #3
  br label %76

30:                                               ; preds = %25
  %31 = load i64, ptr %8, align 8, !tbaa !8
  %32 = load i64, ptr %3, align 8, !tbaa !8
  %33 = sdiv i64 %31, %32
  %34 = load i64, ptr %3, align 8, !tbaa !8
  %35 = sdiv i64 %33, %34
  %36 = load i64, ptr %3, align 8, !tbaa !8
  %37 = srem i64 %35, %36
  %38 = sitofp i64 %37 to float
  %39 = load float, ptr %6, align 4, !tbaa !82
  %40 = fmul float %38, %39
  %41 = load ptr, ptr %5, align 8, !tbaa !60
  %42 = load i64, ptr %4, align 8, !tbaa !8
  %43 = load i64, ptr %8, align 8, !tbaa !8
  %44 = mul nsw i64 %42, %43
  %45 = add nsw i64 %44, 0
  %46 = call noundef nonnull align 4 dereferenceable(4) ptr @_ZNSt6vectorIfSaIfEEixEm(ptr noundef nonnull align 8 dereferenceable(24) %41, i64 noundef %45) #3
  store float %40, ptr %46, align 4, !tbaa !82
  %47 = load i64, ptr %8, align 8, !tbaa !8
  %48 = load i64, ptr %3, align 8, !tbaa !8
  %49 = sdiv i64 %47, %48
  %50 = load i64, ptr %3, align 8, !tbaa !8
  %51 = srem i64 %49, %50
  %52 = sitofp i64 %51 to float
  %53 = load float, ptr %6, align 4, !tbaa !82
  %54 = fmul float %52, %53
  %55 = load ptr, ptr %5, align 8, !tbaa !60
  %56 = load i64, ptr %4, align 8, !tbaa !8
  %57 = load i64, ptr %8, align 8, !tbaa !8
  %58 = mul nsw i64 %56, %57
  %59 = add nsw i64 %58, 1
  %60 = call noundef nonnull align 4 dereferenceable(4) ptr @_ZNSt6vectorIfSaIfEEixEm(ptr noundef nonnull align 8 dereferenceable(24) %55, i64 noundef %59) #3
  store float %54, ptr %60, align 4, !tbaa !82
  %61 = load i64, ptr %8, align 8, !tbaa !8
  %62 = load i64, ptr %3, align 8, !tbaa !8
  %63 = srem i64 %61, %62
  %64 = sitofp i64 %63 to float
  %65 = load float, ptr %6, align 4, !tbaa !82
  %66 = fmul float %64, %65
  %67 = load ptr, ptr %5, align 8, !tbaa !60
  %68 = load i64, ptr %4, align 8, !tbaa !8
  %69 = load i64, ptr %8, align 8, !tbaa !8
  %70 = mul nsw i64 %68, %69
  %71 = add nsw i64 %70, 2
  %72 = call noundef nonnull align 4 dereferenceable(4) ptr @_ZNSt6vectorIfSaIfEEixEm(ptr noundef nonnull align 8 dereferenceable(24) %67, i64 noundef %71) #3
  store float %66, ptr %72, align 4, !tbaa !82
  br label %73

73:                                               ; preds = %30
  %74 = load i64, ptr %8, align 8, !tbaa !8
  %75 = add nsw i64 %74, 1
  store i64 %75, ptr %8, align 8, !tbaa !8
  br label %25, !llvm.loop !84

76:                                               ; preds = %29
  call void @llvm.lifetime.end.p0(i64 8, ptr %7) #3
  call void @llvm.lifetime.end.p0(i64 4, ptr %6) #3
  call void @llvm.lifetime.end.p0(i64 8, ptr %5) #3
  call void @llvm.lifetime.end.p0(i64 8, ptr %4) #3
  call void @llvm.lifetime.end.p0(i64 8, ptr %3) #3
  ret void
}