; Function Attrs: mustprogress uwtable
define hidden void @_ZN19OpenColorIO_v2_5dev11Lut3DOpData10Lut3DArray4fillEv(ptr noundef nonnull align 8 dereferenceable(48) %0) local_unnamed_addr #3 align 2 {
  %2 = load ptr, ptr %0, align 8, !tbaa !50
  %3 = getelementptr inbounds nuw i8, ptr %2, i64 32
  %4 = load ptr, ptr %3, align 8
  %5 = tail call noundef i64 %4(ptr noundef nonnull align 8 dereferenceable(48) %0)
  %6 = sitofp i64 %5 to float
  %7 = fadd float %6, -1.000000e+00
  %8 = fdiv float 1.000000e+00, %7
  %9 = mul nsw i64 %5, %5
  %10 = mul nsw i64 %9, %5
  %11 = icmp sgt i64 %10, 0
  br i1 %11, label %.lr.ph, label %._crit_edge

.lr.ph:                                           ; preds = %1
  %12 = getelementptr inbounds nuw i8, ptr %0, i64 24
  %13 = load ptr, ptr %12, align 8, !tbaa !81
  %invariant.gep = getelementptr inbounds nuw i8, ptr %13, i64 4
  %invariant.gep29 = getelementptr inbounds nuw i8, ptr %13, i64 8
  br label %14

._crit_edge:                                      ; preds = %14, %1
  ret void

14:                                               ; preds = %.lr.ph, %14
  %.028 = phi i64 [ 0, %.lr.ph ], [ %28, %14 ]
  %15 = sdiv i64 %.028, %5
  %16 = sdiv i64 %15, %5
  %17 = srem i64 %16, %5
  %18 = sitofp i64 %17 to float
  %19 = fmul float %8, %18
  %20 = mul nuw nsw i64 %.028, 3
  %21 = getelementptr inbounds nuw float, ptr %13, i64 %20
  store float %19, ptr %21, align 4, !tbaa !92
  %22 = srem i64 %15, %5
  %23 = sitofp i64 %22 to float
  %24 = fmul float %8, %23
  %gep = getelementptr inbounds nuw float, ptr %invariant.gep, i64 %20
  store float %24, ptr %gep, align 4, !tbaa !92
  %25 = srem i64 %.028, %5
  %26 = uitofp nneg i64 %25 to float
  %27 = fmul float %8, %26
  %gep30 = getelementptr inbounds nuw float, ptr %invariant.gep29, i64 %20
  store float %27, ptr %gep30, align 4, !tbaa !92
  %28 = add nuw nsw i64 %.028, 1
  %exitcond.not = icmp eq i64 %28, %10
  br i1 %exitcond.not, label %._crit_edge, label %14, !llvm.loop !94
}